target datalayout = "e-m:e-p270:32:32-p271:32:32-p272:64:64-i64:64-i128:128-f80:128-n8:16:32:64-S128"
target triple = "x86_64-pc-linux-gnu"

%struct.statement = type { i32, ptr, ptr, ptr, i32, i8, i32, i8, ptr, ptr, ptr, i32, ptr, ptr, ptr, ptr }
%struct.connection = type { ptr, ptr, i8, ptr, ptr, ptr }

@.str.34 = private unnamed_addr constant [75 x i8] c"ecpg_execute on line %d: query: %s; with %d parameter(s) on connection %s\0A\00", align 1
@.str.35 = private unnamed_addr constant [56 x i8] c"ecpg_execute on line %d: using PQexecPrepared for \22%s\22\0A\00", align 1
@.str.36 = private unnamed_addr constant [39 x i8] c"ecpg_execute on line %d: using PQexec\0A\00", align 1
@.str.37 = private unnamed_addr constant [45 x i8] c"ecpg_execute on line %d: using PQexecParams\0A\00", align 1

; Function Attrs: nounwind uwtable
define zeroext i1 @ecpg_execute(ptr noundef %0) #0 {
  %2 = alloca i1, align 1
  %3 = alloca ptr, align 8
  store ptr %0, ptr %3, align 8
  %4 = load ptr, ptr %3, align 8
  %5 = getelementptr inbounds nuw %struct.statement, ptr %4, i32 0, i32 0
  %6 = load i32, ptr %5, align 8
  %7 = load ptr, ptr %3, align 8
  %8 = getelementptr inbounds nuw %struct.statement, ptr %7, i32 0, i32 1
  %9 = load ptr, ptr %8, align 8
  %10 = load ptr, ptr %3, align 8
  %11 = getelementptr inbounds nuw %struct.statement, ptr %10, i32 0, i32 11
  %12 = load i32, ptr %11, align 8
  %13 = load ptr, ptr %3, align 8
  %14 = getelementptr inbounds nuw %struct.statement, ptr %13, i32 0, i32 3
  %15 = load ptr, ptr %14, align 8
  %16 = getelementptr inbounds nuw %struct.connection, ptr %15, i32 0, i32 0
  %17 = load ptr, ptr %16, align 8
  call void (ptr, ...) @ecpg_log(ptr noundef @.str.34, i32 noundef %6, ptr noundef %9, i32 noundef %12, ptr noundef %17)
  %18 = load ptr, ptr %3, align 8
  %19 = getelementptr inbounds nuw %struct.statement, ptr %18, i32 0, i32 6
  %20 = load i32, ptr %19, align 8
  %21 = icmp eq i32 %20, 1
  br i1 %21, label %22, label %52

22:                                               ; preds = %1
  %23 = load ptr, ptr %3, align 8
  %24 = getelementptr inbounds nuw %struct.statement, ptr %23, i32 0, i32 3
  %25 = load ptr, ptr %24, align 8
  %26 = getelementptr inbounds nuw %struct.connection, ptr %25, i32 0, i32 1
  %27 = load ptr, ptr %26, align 8
  %28 = load ptr, ptr %3, align 8
  %29 = getelementptr inbounds nuw %struct.statement, ptr %28, i32 0, i32 2
  %30 = load ptr, ptr %29, align 8
  %31 = load ptr, ptr %3, align 8
  %32 = getelementptr inbounds nuw %struct.statement, ptr %31, i32 0, i32 11
  %33 = load i32, ptr %32, align 8
  %34 = load ptr, ptr %3, align 8
  %35 = getelementptr inbounds nuw %struct.statement, ptr %34, i32 0, i32 12
  %36 = load ptr, ptr %35, align 8
  %37 = load ptr, ptr %3, align 8
  %38 = getelementptr inbounds nuw %struct.statement, ptr %37, i32 0, i32 13
  %39 = load ptr, ptr %38, align 8
  %40 = load ptr, ptr %3, align 8
  %41 = getelementptr inbounds nuw %struct.statement, ptr %40, i32 0, i32 14
  %42 = load ptr, ptr %41, align 8
  %43 = call ptr @PQexecPrepared(ptr noundef %27, ptr noundef %30, i32 noundef %33, ptr noundef %36, ptr noundef %39, ptr noundef %42, i32 noundef 0)
  %44 = load ptr, ptr %3, align 8
  %45 = getelementptr inbounds nuw %struct.statement, ptr %44, i32 0, i32 15
  store ptr %43, ptr %45, align 8
  %46 = load ptr, ptr %3, align 8
  %47 = getelementptr inbounds nuw %struct.statement, ptr %46, i32 0, i32 0
  %48 = load i32, ptr %47, align 8
  %49 = load ptr, ptr %3, align 8
  %50 = getelementptr inbounds nuw %struct.statement, ptr %49, i32 0, i32 1
  %51 = load ptr, ptr %50, align 8
  call void (ptr, ...) @ecpg_log(ptr noundef @.str.35, i32 noundef %48, ptr noundef %51)
  br label %111

52:                                               ; preds = %1
  %53 = load ptr, ptr %3, align 8
  %54 = getelementptr inbounds nuw %struct.statement, ptr %53, i32 0, i32 11
  %55 = load i32, ptr %54, align 8
  %56 = icmp eq i32 %55, 0
  br i1 %56, label %57, label %72

57:                                               ; preds = %52
  %58 = load ptr, ptr %3, align 8
  %59 = getelementptr inbounds nuw %struct.statement, ptr %58, i32 0, i32 3
  %60 = load ptr, ptr %59, align 8
  %61 = getelementptr inbounds nuw %struct.connection, ptr %60, i32 0, i32 1
  %62 = load ptr, ptr %61, align 8
  %63 = load ptr, ptr %3, align 8
  %64 = getelementptr inbounds nuw %struct.statement, ptr %63, i32 0, i32 1
  %65 = load ptr, ptr %64, align 8
  %66 = call ptr @PQexec(ptr noundef %62, ptr noundef %65)
  %67 = load ptr, ptr %3, align 8
  %68 = getelementptr inbounds nuw %struct.statement, ptr %67, i32 0, i32 15
  store ptr %66, ptr %68, align 8
  %69 = load ptr, ptr %3, align 8
  %70 = getelementptr inbounds nuw %struct.statement, ptr %69, i32 0, i32 0
  %71 = load i32, ptr %70, align 8
  call void (ptr, ...) @ecpg_log(ptr noundef @.str.36, i32 noundef %71)
  br label %99

72:                                               ; preds = %52
  %73 = load ptr, ptr %3, align 8
  %74 = getelementptr inbounds nuw %struct.statement, ptr %73, i32 0, i32 3
  %75 = load ptr, ptr %74, align 8
  %76 = getelementptr inbounds nuw %struct.connection, ptr %75, i32 0, i32 1
  %77 = load ptr, ptr %76, align 8
  %78 = load ptr, ptr %3, align 8
  %79 = getelementptr inbounds nuw %struct.statement, ptr %78, i32 0, i32 1
  %80 = load ptr, ptr %79, align 8
  %81 = load ptr, ptr %3, align 8
  %82 = getelementptr inbounds nuw %struct.statement, ptr %81, i32 0, i32 11
  %83 = load i32, ptr %82, align 8
  %84 = load ptr, ptr %3, align 8
  %85 = getelementptr inbounds nuw %struct.statement, ptr %84, i32 0, i32 12
  %86 = load ptr, ptr %85, align 8
  %87 = load ptr, ptr %3, align 8
  %88 = getelementptr inbounds nuw %struct.statement, ptr %87, i32 0, i32 13
  %89 = load ptr, ptr %88, align 8
  %90 = load ptr, ptr %3, align 8
  %91 = getelementptr inbounds nuw %struct.statement, ptr %90, i32 0, i32 14
  %92 = load ptr, ptr %91, align 8
  %93 = call ptr @PQexecParams(ptr noundef %77, ptr noundef %80, i32 noundef %83, ptr noundef null, ptr noundef %86, ptr noundef %89, ptr noundef %92, i32 noundef 0)
  %94 = load ptr, ptr %3, align 8
  %95 = getelementptr inbounds nuw %struct.statement, ptr %94, i32 0, i32 15
  store ptr %93, ptr %95, align 8
  %96 = load ptr, ptr %3, align 8
  %97 = getelementptr inbounds nuw %struct.statement, ptr %96, i32 0, i32 0
  %98 = load i32, ptr %97, align 8
  call void (ptr, ...) @ecpg_log(ptr noundef @.str.37, i32 noundef %98)
  br label %99

99:                                               ; preds = %72, %57
  %100 = load ptr, ptr %3, align 8
  %101 = getelementptr inbounds nuw %struct.statement, ptr %100, i32 0, i32 6
  %102 = load i32, ptr %101, align 8
  %103 = icmp eq i32 %102, 4
  br i1 %103, label %104, label %110

104:                                              ; preds = %99
  %105 = load ptr, ptr %3, align 8
  %106 = call zeroext i1 @ecpg_register_prepared_stmt(ptr noundef %105)
  br i1 %106, label %109, label %107

107:                                              ; preds = %104
  %108 = load ptr, ptr %3, align 8
  call void @ecpg_free_params(ptr noundef %108, i1 noundef zeroext true)
  store i1 false, ptr %2, align 1
  br label %130

109:                                              ; preds = %104
  br label %110

110:                                              ; preds = %109, %99
  br label %111

111:                                              ; preds = %110, %22
  %112 = load ptr, ptr %3, align 8
  call void @ecpg_free_params(ptr noundef %112, i1 noundef zeroext true)
  %113 = load ptr, ptr %3, align 8
  %114 = getelementptr inbounds nuw %struct.statement, ptr %113, i32 0, i32 15
  %115 = load ptr, ptr %114, align 8
  %116 = load ptr, ptr %3, align 8
  %117 = getelementptr inbounds nuw %struct.statement, ptr %116, i32 0, i32 0
  %118 = load i32, ptr %117, align 8
  %119 = load ptr, ptr %3, align 8
  %120 = getelementptr inbounds nuw %struct.statement, ptr %119, i32 0, i32 3
  %121 = load ptr, ptr %120, align 8
  %122 = getelementptr inbounds nuw %struct.connection, ptr %121, i32 0, i32 1
  %123 = load ptr, ptr %122, align 8
  %124 = load ptr, ptr %3, align 8
  %125 = getelementptr inbounds nuw %struct.statement, ptr %124, i32 0, i32 4
  %126 = load i32, ptr %125, align 8
  %127 = call zeroext i1 @ecpg_check_PQresult(ptr noundef %115, i32 noundef %118, ptr noundef %123, i32 noundef %126)
  br i1 %127, label %129, label %128

128:                                              ; preds = %111
  store i1 false, ptr %2, align 1
  br label %130

129:                                              ; preds = %111
  store i1 true, ptr %2, align 1
  br label %130

130:                                              ; preds = %129, %128, %107
  %131 = load i1, ptr %2, align 1
  ret i1 %131
}