; Function Attrs: nounwind uwtable
define zeroext i1 @ecpg_execute(ptr noundef initializes((104, 112)) %0) local_unnamed_addr #0 {
  %2 = load i32, ptr %0, align 8
  %3 = getelementptr inbounds nuw i8, ptr %0, i64 8
  %4 = load ptr, ptr %3, align 8
  %5 = getelementptr inbounds nuw i8, ptr %0, i64 72
  %6 = load i32, ptr %5, align 8
  %7 = getelementptr inbounds nuw i8, ptr %0, i64 24
  %8 = load ptr, ptr %7, align 8
  %9 = load ptr, ptr %8, align 8
  tail call void (ptr, ...) @ecpg_log(ptr noundef nonnull @.str.34, i32 noundef %2, ptr noundef %4, i32 noundef %6, ptr noundef %9) #14
  %10 = getelementptr inbounds nuw i8, ptr %0, i64 40
  %11 = load i32, ptr %10, align 8
  %12 = icmp eq i32 %11, 1
  br i1 %12, label %13, label %30

13:                                               ; preds = %1
  %14 = load ptr, ptr %7, align 8
  %15 = getelementptr inbounds nuw i8, ptr %14, i64 8
  %16 = load ptr, ptr %15, align 8
  %17 = getelementptr inbounds nuw i8, ptr %0, i64 16
  %18 = load ptr, ptr %17, align 8
  %19 = load i32, ptr %5, align 8
  %20 = getelementptr inbounds nuw i8, ptr %0, i64 80
  %21 = load ptr, ptr %20, align 8
  %22 = getelementptr inbounds nuw i8, ptr %0, i64 88
  %23 = load ptr, ptr %22, align 8
  %24 = getelementptr inbounds nuw i8, ptr %0, i64 96
  %25 = load ptr, ptr %24, align 8
  %26 = tail call ptr @PQexecPrepared(ptr noundef %16, ptr noundef %18, i32 noundef %19, ptr noundef %21, ptr noundef %23, ptr noundef %25, i32 noundef 0) #14
  %27 = getelementptr inbounds nuw i8, ptr %0, i64 104
  store ptr %26, ptr %27, align 8
  %28 = load i32, ptr %0, align 8
  %29 = load ptr, ptr %3, align 8
  tail call void (ptr, ...) @ecpg_log(ptr noundef nonnull @.str.35, i32 noundef %28, ptr noundef %29) #14
  br label %55

30:                                               ; preds = %1
  %31 = load i32, ptr %5, align 8
  %32 = icmp eq i32 %31, 0
  %33 = load ptr, ptr %7, align 8
  %34 = getelementptr inbounds nuw i8, ptr %33, i64 8
  %35 = load ptr, ptr %34, align 8
  %36 = load ptr, ptr %3, align 8
  br i1 %32, label %37, label %39

37:                                               ; preds = %30
  %38 = tail call ptr @PQexec(ptr noundef %35, ptr noundef %36) #14
  br label %47

39:                                               ; preds = %30
  %40 = getelementptr inbounds nuw i8, ptr %0, i64 80
  %41 = load ptr, ptr %40, align 8
  %42 = getelementptr inbounds nuw i8, ptr %0, i64 88
  %43 = load ptr, ptr %42, align 8
  %44 = getelementptr inbounds nuw i8, ptr %0, i64 96
  %45 = load ptr, ptr %44, align 8
  %46 = tail call ptr @PQexecParams(ptr noundef %35, ptr noundef %36, i32 noundef %31, ptr noundef null, ptr noundef %41, ptr noundef %43, ptr noundef %45, i32 noundef 0) #14
  br label %47

47:                                               ; preds = %39, %37
  %.sink = phi ptr [ %46, %39 ], [ %38, %37 ]
  %.str.37.sink = phi ptr [ @.str.37, %39 ], [ @.str.36, %37 ]
  %48 = getelementptr inbounds nuw i8, ptr %0, i64 104
  store ptr %.sink, ptr %48, align 8
  %49 = load i32, ptr %0, align 8
  tail call void (ptr, ...) @ecpg_log(ptr noundef nonnull %.str.37.sink, i32 noundef %49) #14
  %50 = load i32, ptr %10, align 8
  %51 = icmp eq i32 %50, 4
  br i1 %51, label %52, label %55

52:                                               ; preds = %47
  %53 = tail call zeroext i1 @ecpg_register_prepared_stmt(ptr noundef nonnull %0) #14
  br i1 %53, label %55, label %54

54:                                               ; preds = %52
  tail call void @ecpg_free_params(ptr noundef nonnull %0, i1 noundef zeroext true)
  br label %65

55:                                               ; preds = %47, %52, %13
  tail call void @ecpg_free_params(ptr noundef nonnull %0, i1 noundef zeroext true)
  %56 = getelementptr inbounds nuw i8, ptr %0, i64 104
  %57 = load ptr, ptr %56, align 8
  %58 = load i32, ptr %0, align 8
  %59 = load ptr, ptr %7, align 8
  %60 = getelementptr inbounds nuw i8, ptr %59, i64 8
  %61 = load ptr, ptr %60, align 8
  %62 = getelementptr inbounds nuw i8, ptr %0, i64 32
  %63 = load i32, ptr %62, align 8
  %64 = tail call zeroext i1 @ecpg_check_PQresult(ptr noundef %57, i32 noundef %58, ptr noundef %61, i32 noundef %63) #14
  br label %65

65:                                               ; preds = %55, %54
  %.0 = phi i1 [ false, %54 ], [ %64, %55 ]
  ret i1 %.0
}